; Function Attrs: mustprogress uwtable
define noundef ptr @_ZNK4toku12range_buffer8iterator6record12get_left_keyEv(ptr noundef nonnull readonly align 8 dereferenceable(80) %0) local_unnamed_addr #1 align 2 {
  %2 = load i8, ptr %0, align 8, !tbaa !23, !range !10, !noundef !11
  %3 = trunc nuw i8 %2 to i1
  br i1 %3, label %4, label %6

4:                                                ; preds = %1
  %5 = tail call noundef ptr @_Z26toku_dbt_negative_infinityv()
  br label %14

6:                                                ; preds = %1
  %7 = getelementptr inbounds nuw i8, ptr %0, i64 1
  %8 = load i8, ptr %7, align 1, !tbaa !25, !range !10, !noundef !11
  %9 = trunc nuw i8 %8 to i1
  br i1 %9, label %10, label %12

10:                                               ; preds = %6
  %11 = tail call noundef ptr @_Z26toku_dbt_positive_infinityv()
  br label %14

12:                                               ; preds = %6
  %13 = getelementptr inbounds nuw i8, ptr %0, i64 16
  br label %14

14:                                               ; preds = %12, %10, %4
  %.0 = phi ptr [ %5, %4 ], [ %11, %10 ], [ %13, %12 ]
  ret ptr %.0
}